; Function Attrs: mustprogress uwtable
define void @_ZN27CaptureFilePropertiesDialog17addCaptureCommentEv(ptr noundef nonnull align 8 dereferenceable(144) %0) #0 align 2 personality ptr @__gxx_personality_v0 {
  %2 = alloca { i64, i64 }, align 8
  %3 = alloca { i64, i64 }, align 8
  %4 = alloca %"class.QMetaObject::Connection", align 8
  %5 = tail call noalias noundef nonnull dereferenceable(152) ptr @_Znwm(i64 noundef 152) #12
  %6 = getelementptr inbounds i8, ptr %0, i64 64
  %7 = load ptr, ptr %6, align 8
  invoke void @_ZN20CaptureCommentDialogC1ER7QWidgetR11CaptureFile(ptr noundef nonnull align 8 dereferenceable(152) %5, ptr noundef nonnull align 8 dereferenceable(40) %0, ptr noundef nonnull align 8 dereferenceable(48) %7)
          to label %8 unwind label %12

8:                                                ; preds = %1
  call void @llvm.lifetime.start.p0(i64 16, ptr nonnull %2)
  call void @llvm.lifetime.start.p0(i64 16, ptr nonnull %3)
  store i64 ptrtoint (ptr @_ZN20CaptureCommentDialog21captureCommentChangedEv to i64), ptr %2, align 8, !noalias !7
  %.fca.1.gep14.i = getelementptr inbounds i8, ptr %2, i64 8
  store i64 0, ptr %.fca.1.gep14.i, align 8, !noalias !7
  store i64 465, ptr %3, align 8, !noalias !7
  %.fca.1.gep.i = getelementptr inbounds i8, ptr %3, i64 8
  store i64 0, ptr %.fca.1.gep.i, align 8, !noalias !7
  %9 = tail call noalias noundef nonnull dereferenceable(32) ptr @_Znwm(i64 noundef 32) #12, !noalias !7
  store i32 1, ptr %9, align 4, !noalias !7
  %10 = getelementptr inbounds i8, ptr %9, i64 8
  store ptr @_ZN9QtPrivate11QSlotObjectIM27CaptureFilePropertiesDialogFvvENS_4ListIJEEEvE4implEiPNS_15QSlotObjectBaseEP7QObjectPPvPb, ptr %10, align 8, !noalias !7
  %11 = getelementptr inbounds i8, ptr %9, i64 16
  store i64 465, ptr %11, align 8, !noalias !7
  %.repack7.i.i = getelementptr inbounds i8, ptr %9, i64 24
  store i64 0, ptr %.repack7.i.i, align 8, !noalias !7
  call void @_ZN7QObject11connectImplEPKS_PPvS1_S3_PN9QtPrivate15QSlotObjectBaseEN2Qt14ConnectionTypeEPKiPK11QMetaObject(ptr dead_on_unwind nonnull writable sret(%"class.QMetaObject::Connection") align 8 %4, ptr noundef nonnull %5, ptr noundef nonnull %2, ptr noundef nonnull %0, ptr noundef nonnull %3, ptr noundef nonnull %9, i32 noundef 0, ptr noundef null, ptr noundef nonnull @_ZN20CaptureCommentDialog16staticMetaObjectE)
  call void @llvm.lifetime.end.p0(i64 16, ptr nonnull %2)
  call void @llvm.lifetime.end.p0(i64 16, ptr nonnull %3)
  call void @_ZN11QMetaObject10ConnectionD1Ev(ptr noundef nonnull align 8 dereferenceable(8) %4) #13
  call void @_ZN7QWidget12setAttributeEN2Qt15WidgetAttributeEb(ptr noundef nonnull align 8 dereferenceable(40) %5, i32 noundef 55, i1 noundef zeroext true)
  call void @_ZN7QWidget4showEv(ptr noundef nonnull align 8 dereferenceable(40) %5)
  ret void

12:                                               ; preds = %1
  %13 = landingpad { ptr, i32 }
          cleanup
  tail call void @_ZdlPv(ptr noundef nonnull %5) #14
  resume { ptr, i32 } %13
}